target datalayout = "e-m:e-p270:32:32-p271:32:32-p272:64:64-i64:64-i128:128-f80:128-n8:16:32:64-S128"
target triple = "x86_64-pc-linux-gnu"

%struct.SDL_FColor = type { float, float, float, float }
%struct.SDL_Rect = type { i32, i32, i32, i32 }
%struct.GLES2_RenderData = type { ptr, i8, i8, i8, ptr, ptr, ptr, ptr, ptr, ptr, ptr, ptr, ptr, ptr, ptr, ptr, ptr, ptr, ptr, ptr, ptr, ptr, ptr, ptr, ptr, ptr, ptr, ptr, ptr, ptr, ptr, ptr, ptr, ptr, ptr, ptr, ptr, ptr, ptr, ptr, ptr, ptr, ptr, ptr, ptr, ptr, ptr, ptr, ptr, ptr, ptr, ptr, ptr, ptr, ptr, ptr, ptr, ptr, ptr, ptr, ptr, ptr, i32, [16 x i32], %struct.GLES2_ProgramCache, i8, i8, i8, i8, %struct.GLES2_DrawStateCache, i32 }
%struct.GLES2_ProgramCache = type { i32, ptr, ptr }
%struct.GLES2_DrawStateCache = type { %struct.SDL_Rect, i8, ptr, ptr, i32, i8, i8, i8, %struct.SDL_Rect, i8, i8, %struct.SDL_FColor, i8, i32, i32, ptr, ptr, [4 x [4 x float]] }

; Function Attrs: nounwind uwtable
define internal zeroext i1 @GLES2_CacheShaders(ptr noundef %0) #0 {
  %2 = alloca i1, align 1
  %3 = alloca ptr, align 8
  %4 = alloca i32, align 4
  %5 = alloca i32, align 4
  %6 = alloca i32, align 4
  store ptr %0, ptr %3, align 8
  call void @llvm.lifetime.start.p0(i64 4, ptr %4) #6
  %7 = call i32 @GLES2_GetTexCoordPrecisionEnumFromHint()
  %8 = load ptr, ptr %3, align 8
  %9 = getelementptr inbounds nuw %struct.GLES2_RenderData, ptr %8, i32 0, i32 70
  store i32 %7, ptr %9, align 8
  store i32 0, ptr %4, align 4
  br label %10

10:                                               ; preds = %28, %1
  %11 = load i32, ptr %4, align 4
  %12 = icmp slt i32 %11, 15
  br i1 %12, label %13, label %31

13:                                               ; preds = %10
  call void @llvm.lifetime.start.p0(i64 4, ptr %5) #6
  %14 = load i32, ptr %4, align 4
  %15 = icmp eq i32 %14, 0
  br i1 %15, label %16, label %17

16:                                               ; preds = %13
  store i32 35633, ptr %5, align 4
  br label %18

17:                                               ; preds = %13
  store i32 35632, ptr %5, align 4
  br label %18

18:                                               ; preds = %17, %16
  %19 = load ptr, ptr %3, align 8
  %20 = load i32, ptr %4, align 4
  %21 = load i32, ptr %5, align 4
  %22 = call zeroext i1 @GLES2_CacheShader(ptr noundef %19, i32 noundef %20, i32 noundef %21)
  br i1 %22, label %24, label %23

23:                                               ; preds = %18
  store i1 false, ptr %2, align 1
  store i32 1, ptr %6, align 4
  br label %25

24:                                               ; preds = %18
  store i32 0, ptr %6, align 4
  br label %25

25:                                               ; preds = %24, %23
  call void @llvm.lifetime.end.p0(i64 4, ptr %5) #6
  %26 = load i32, ptr %6, align 4
  switch i32 %26, label %32 [
    i32 0, label %27
  ]

27:                                               ; preds = %25
  br label %28

28:                                               ; preds = %27
  %29 = load i32, ptr %4, align 4
  %30 = add nsw i32 %29, 1
  store i32 %30, ptr %4, align 4
  br label %10, !llvm.loop !5

31:                                               ; preds = %10
  store i1 true, ptr %2, align 1
  store i32 1, ptr %6, align 4
  br label %32

32:                                               ; preds = %31, %25
  call void @llvm.lifetime.end.p0(i64 4, ptr %4) #6
  %33 = load i1, ptr %2, align 1
  ret i1 %33
}