; Function Attrs: nounwind uwtable
define internal fastcc noundef zeroext i1 @GLES2_CacheShaders(ptr noundef nonnull captures(none) initializes((760, 764)) %0) unnamed_addr #0 {
  %2 = tail call i32 @GLES2_GetTexCoordPrecisionEnumFromHint() #10
  %3 = getelementptr inbounds nuw i8, ptr %0, i64 760
  store i32 %2, ptr %3, align 8
  br label %4

4:                                                ; preds = %1, %9
  %.0913 = phi i32 [ 0, %1 ], [ %10, %9 ]
  %5 = icmp eq i32 %.0913, 0
  br i1 %5, label %.split, label %7

.split:                                           ; preds = %4
  %6 = tail call fastcc zeroext i1 @GLES2_CacheShader(ptr noundef nonnull %0, i32 noundef 0, i32 noundef 35633)
  br i1 %6, label %9, label %11

7:                                                ; preds = %4
  %8 = tail call fastcc zeroext i1 @GLES2_CacheShader(ptr noundef nonnull %0, i32 noundef %.0913, i32 noundef 35632)
  br i1 %8, label %9, label %11

9:                                                ; preds = %.split, %7
  %10 = add nuw nsw i32 %.0913, 1
  %exitcond = icmp eq i32 %10, 15
  br i1 %exitcond, label %11, label %4, !llvm.loop !3

11:                                               ; preds = %.split, %9, %7
  %.lcssa = phi i1 [ false, %.split ], [ true, %9 ], [ false, %7 ]
  ret i1 %.lcssa
}